; ModuleID = '16/948.c'
source_filename = "16/948.c"
target datalayout = "e-m:e-p270:32:32-p271:32:32-p272:64:64-i64:64-f80:128-n8:16:32:64-S128"
target triple = "x86_64-pc-linux-gnu"

@.str = private unnamed_addr constant [4 x i8] c"%d\0A\00", align 1
@.str.1 = private unnamed_addr constant [6 x i8] c"00001\00", align 1
@.str.2 = private unnamed_addr constant [9 x i8] c"%d%d%d%d\00", align 1
@.str.3 = private unnamed_addr constant [7 x i8] c"%d%d%d\00", align 1
@.str.4 = private unnamed_addr constant [5 x i8] c"%d%d\00", align 1
@.str.5 = private unnamed_addr constant [3 x i8] c"%d\00", align 1

; Function Attrs: noinline nounwind uwtable
define dso_local i32 @main() #0 {
  %1 = alloca i32, align 4
  %2 = alloca i32, align 4
  %3 = alloca i32, align 4
  %4 = alloca i32, align 4
  %5 = alloca i32, align 4
  %6 = alloca i32, align 4
  %7 = alloca i32, align 4
  store i32 0, i32* %1, align 4
  %8 = call i32 (i8*, ...) @__isoc99_scanf(i8* getelementptr inbounds ([4 x i8], [4 x i8]* @.str, i64 0, i64 0), i32* %7)
  %9 = load i32, i32* %7, align 4
  %10 = icmp eq i32 %9, 10000
  br i1 %10, label %11, label %13

11:                                               ; preds = %0
  %12 = call i32 (i8*, ...) @printf(i8* getelementptr inbounds ([6 x i8], [6 x i8]* @.str.1, i64 0, i64 0))
  br label %104

13:                                               ; preds = %0
  %14 = load i32, i32* %7, align 4
  %15 = icmp sge i32 %14, 1000
  br i1 %15, label %16, label %50

16:                                               ; preds = %13
  %17 = load i32, i32* %7, align 4
  %18 = icmp sle i32 %17, 9999
  br i1 %18, label %19, label %50

19:                                               ; preds = %16
  %20 = load i32, i32* %7, align 4
  %21 = sdiv i32 %20, 1000
  store i32 %21, i32* %3, align 4
  %22 = load i32, i32* %7, align 4
  %23 = load i32, i32* %3, align 4
  %24 = mul nsw i32 %23, 1000
  %25 = sub nsw i32 %22, %24
  %26 = sdiv i32 %25, 100
  store i32 %26, i32* %4, align 4
  %27 = load i32, i32* %7, align 4
  %28 = load i32, i32* %3, align 4
  %29 = mul nsw i32 %28, 1000
  %30 = sub nsw i32 %27, %29
  %31 = load i32, i32* %4, align 4
  %32 = mul nsw i32 %31, 100
  %33 = sub nsw i32 %30, %32
  %34 = sdiv i32 %33, 10
  store i32 %34, i32* %5, align 4
  %35 = load i32, i32* %7, align 4
  %36 = load i32, i32* %3, align 4
  %37 = mul nsw i32 %36, 1000
  %38 = sub nsw i32 %35, %37
  %39 = load i32, i32* %4, align 4
  %40 = mul nsw i32 %39, 100
  %41 = sub nsw i32 %38, %40
  %42 = load i32, i32* %5, align 4
  %43 = mul nsw i32 %42, 10
  %44 = sub nsw i32 %41, %43
  store i32 %44, i32* %6, align 4
  %45 = load i32, i32* %6, align 4
  %46 = load i32, i32* %5, align 4
  %47 = load i32, i32* %4, align 4
  %48 = load i32, i32* %3, align 4
  %49 = call i32 (i8*, ...) @printf(i8* getelementptr inbounds ([9 x i8], [9 x i8]* @.str.2, i64 0, i64 0), i32 %45, i32 %46, i32 %47, i32 %48)
  br label %103

50:                                               ; preds = %16, %13
  %51 = load i32, i32* %7, align 4
  %52 = icmp sge i32 %51, 100
  br i1 %52, label %53, label %75

53:                                               ; preds = %50
  %54 = load i32, i32* %7, align 4
  %55 = icmp sle i32 %54, 999
  br i1 %55, label %56, label %75

56:                                               ; preds = %53
  %57 = load i32, i32* %7, align 4
  %58 = sdiv i32 %57, 100
  store i32 %58, i32* %4, align 4
  %59 = load i32, i32* %7, align 4
  %60 = load i32, i32* %4, align 4
  %61 = mul nsw i32 %60, 100
  %62 = sub nsw i32 %59, %61
  %63 = sdiv i32 %62, 10
  store i32 %63, i32* %5, align 4
  %64 = load i32, i32* %7, align 4
  %65 = load i32, i32* %4, align 4
  %66 = mul nsw i32 %65, 100
  %67 = sub nsw i32 %64, %66
  %68 = load i32, i32* %5, align 4
  %69 = mul nsw i32 %68, 10
  %70 = sub nsw i32 %67, %69
  store i32 %70, i32* %6, align 4
  %71 = load i32, i32* %6, align 4
  %72 = load i32, i32* %5, align 4
  %73 = load i32, i32* %4, align 4
  %74 = call i32 (i8*, ...) @printf(i8* getelementptr inbounds ([7 x i8], [7 x i8]* @.str.3, i64 0, i64 0), i32 %71, i32 %72, i32 %73)
  br label %102

75:                                               ; preds = %53, %50
  %76 = load i32, i32* %7, align 4
  %77 = icmp sge i32 %76, 10
  br i1 %77, label %78, label %91

78:                                               ; preds = %75
  %79 = load i32, i32* %7, align 4
  %80 = icmp sle i32 %79, 99
  br i1 %80, label %81, label %91

81:                                               ; preds = %78
  %82 = load i32, i32* %7, align 4
  %83 = sdiv i32 %82, 10
  store i32 %83, i32* %5, align 4
  %84 = load i32, i32* %7, align 4
  %85 = load i32, i32* %5, align 4
  %86 = mul nsw i32 %85, 10
  %87 = sub nsw i32 %84, %86
  store i32 %87, i32* %6, align 4
  %88 = load i32, i32* %6, align 4
  %89 = load i32, i32* %5, align 4
  %90 = call i32 (i8*, ...) @printf(i8* getelementptr inbounds ([5 x i8], [5 x i8]* @.str.4, i64 0, i64 0), i32 %88, i32 %89)
  br label %101

91:                                               ; preds = %78, %75
  %92 = load i32, i32* %7, align 4
  %93 = icmp sge i32 %92, 0
  br i1 %93, label %94, label %100

94:                                               ; preds = %91
  %95 = load i32, i32* %7, align 4
  %96 = icmp sle i32 %95, 9
  br i1 %96, label %97, label %100

97:                                               ; preds = %94
  %98 = load i32, i32* %7, align 4
  %99 = call i32 (i8*, ...) @printf(i8* getelementptr inbounds ([3 x i8], [3 x i8]* @.str.5, i64 0, i64 0), i32 %98)
  br label %100

100:                                              ; preds = %97, %94, %91
  br label %101

101:                                              ; preds = %100, %81
  br label %102

102:                                              ; preds = %101, %56
  br label %103

103:                                              ; preds = %102, %19
  br label %104

104:                                              ; preds = %103, %11
  %105 = load i32, i32* %1, align 4
  ret i32 %105
}

declare dso_local i32 @__isoc99_scanf(i8*, ...) #1

declare dso_local i32 @printf(i8*, ...) #1


!llvm.module.flags = !{!0}
!llvm.ident = !{!1}

!0 = !{i32 1, !"wchar_size", i32 4}
!1 = !{!"clang version 10.0.0-4ubuntu1 "}
